target datalayout = "e-m:e-p270:32:32-p271:32:32-p272:64:64-i64:64-i128:128-f80:128-n8:16:32:64-S128"
target triple = "x86_64-pc-linux-gnu"

@.str = private unnamed_addr constant [2 x i8] c" \00", align 1
@.str.1 = private unnamed_addr constant [19 x i8] c"%s: not available\0A\00", align 1
@.str.3 = private unnamed_addr constant [10 x i8] c"%s (%d):\0A\00", align 1
@.str.17 = private unnamed_addr constant [20 x i8] c"%s[%d]={name=\22%s\22}\0A\00", align 1

; Function Attrs: mustprogress nounwind uwtable
define noundef i32 @_Z9pr_indentP8_IO_FILEi(ptr noundef %0, i32 noundef %1) #0 {
  %3 = alloca ptr, align 8
  %4 = alloca i32, align 4
  %5 = alloca i32, align 4
  store ptr %0, ptr %3, align 8
  store i32 %1, ptr %4, align 4
  store i32 0, ptr %5, align 4
  br label %6

6:                                                ; preds = %13, %2
  %7 = load i32, ptr %5, align 4
  %8 = load i32, ptr %4, align 4
  %9 = icmp slt i32 %7, %8
  br i1 %9, label %10, label %16

10:                                               ; preds = %6
  %11 = load ptr, ptr %3, align 8
  %12 = call i32 (ptr, ptr, ...) @fprintf(ptr noundef %11, ptr noundef @.str) #4
  br label %13

13:                                               ; preds = %10
  %14 = load i32, ptr %5, align 4
  %15 = add nsw i32 %14, 1
  store i32 %15, ptr %5, align 4
  br label %6, !llvm.loop !5

16:                                               ; preds = %6
  %17 = load i32, ptr %4, align 4
  ret i32 %17
}

; Function Attrs: mustprogress nounwind uwtable
define noundef i32 @_Z10pr_title_nP8_IO_FILEiPKci(ptr noundef %0, i32 noundef %1, ptr noundef %2, i32 noundef %3) #0 {
  %5 = alloca ptr, align 8
  %6 = alloca i32, align 4
  %7 = alloca ptr, align 8
  %8 = alloca i32, align 4
  store ptr %0, ptr %5, align 8
  store i32 %1, ptr %6, align 4
  store ptr %2, ptr %7, align 8
  store i32 %3, ptr %8, align 4
  %9 = load ptr, ptr %5, align 8
  %10 = load i32, ptr %6, align 4
  %11 = call noundef i32 @_Z9pr_indentP8_IO_FILEi(ptr noundef %9, i32 noundef %10)
  %12 = load ptr, ptr %5, align 8
  %13 = load ptr, ptr %7, align 8
  %14 = load i32, ptr %8, align 4
  %15 = call i32 (ptr, ptr, ...) @fprintf(ptr noundef %12, ptr noundef @.str.3, ptr noundef %13, i32 noundef %14) #4
  %16 = load i32, ptr %6, align 4
  %17 = add nsw i32 %16, 3
  ret i32 %17
}

; Function Attrs: mustprogress nounwind uwtable
define noundef zeroext i1 @_Z9availableP8_IO_FILEPKviPKc(ptr noundef %0, ptr noundef %1, i32 noundef %2, ptr noundef %3) #0 {
  %5 = alloca ptr, align 8
  %6 = alloca ptr, align 8
  %7 = alloca i32, align 4
  %8 = alloca ptr, align 8
  store ptr %0, ptr %5, align 8
  store ptr %1, ptr %6, align 8
  store i32 %2, ptr %7, align 4
  store ptr %3, ptr %8, align 8
  %9 = load ptr, ptr %6, align 8
  %10 = icmp ne ptr %9, null
  br i1 %10, label %22, label %11

11:                                               ; preds = %4
  %12 = load i32, ptr %7, align 4
  %13 = icmp sgt i32 %12, 0
  br i1 %13, label %14, label %18

14:                                               ; preds = %11
  %15 = load ptr, ptr %5, align 8
  %16 = load i32, ptr %7, align 4
  %17 = call noundef i32 @_Z9pr_indentP8_IO_FILEi(ptr noundef %15, i32 noundef %16)
  br label %18

18:                                               ; preds = %14, %11
  %19 = load ptr, ptr %5, align 8
  %20 = load ptr, ptr %8, align 8
  %21 = call i32 (ptr, ptr, ...) @fprintf(ptr noundef %19, ptr noundef @.str.1, ptr noundef %20) #4
  br label %22

22:                                               ; preds = %18, %4
  %23 = load ptr, ptr %6, align 8
  %24 = icmp ne ptr %23, null
  ret i1 %24
}

; Function Attrs: mustprogress nounwind uwtable
define void @_Z10pr_stringsP8_IO_FILEiPKcPKPKS2_ib(ptr noundef %0, i32 noundef %1, ptr noundef %2, ptr noundef %3, i32 noundef %4, i1 noundef zeroext %5) #0 {
  %7 = alloca ptr, align 8
  %8 = alloca i32, align 4
  %9 = alloca ptr, align 8
  %10 = alloca ptr, align 8
  %11 = alloca i32, align 4
  %12 = alloca i8, align 1
  %13 = alloca i32, align 4
  store ptr %0, ptr %7, align 8
  store i32 %1, ptr %8, align 4
  store ptr %2, ptr %9, align 8
  store ptr %3, ptr %10, align 8
  store i32 %4, ptr %11, align 4
  %14 = zext i1 %5 to i8
  store i8 %14, ptr %12, align 1
  %15 = load ptr, ptr %7, align 8
  %16 = load ptr, ptr %10, align 8
  %17 = load i32, ptr %8, align 4
  %18 = load ptr, ptr %9, align 8
  %19 = call noundef zeroext i1 @_Z9availableP8_IO_FILEPKviPKc(ptr noundef %15, ptr noundef %16, i32 noundef %17, ptr noundef %18)
  br i1 %19, label %20, label %54

20:                                               ; preds = %6
  %21 = load ptr, ptr %7, align 8
  %22 = load i32, ptr %8, align 4
  %23 = load ptr, ptr %9, align 8
  %24 = load i32, ptr %11, align 4
  %25 = call noundef i32 @_Z10pr_title_nP8_IO_FILEiPKci(ptr noundef %21, i32 noundef %22, ptr noundef %23, i32 noundef %24)
  store i32 %25, ptr %8, align 4
  store i32 0, ptr %13, align 4
  br label %26

26:                                               ; preds = %50, %20
  %27 = load i32, ptr %13, align 4
  %28 = load i32, ptr %11, align 4
  %29 = icmp slt i32 %27, %28
  br i1 %29, label %30, label %53

30:                                               ; preds = %26
  %31 = load ptr, ptr %7, align 8
  %32 = load i32, ptr %8, align 4
  %33 = call noundef i32 @_Z9pr_indentP8_IO_FILEi(ptr noundef %31, i32 noundef %32)
  %34 = load ptr, ptr %7, align 8
  %35 = load ptr, ptr %9, align 8
  %36 = load i8, ptr %12, align 1
  %37 = trunc i8 %36 to i1
  br i1 %37, label %38, label %40

38:                                               ; preds = %30
  %39 = load i32, ptr %13, align 4
  br label %41

40:                                               ; preds = %30
  br label %41

41:                                               ; preds = %40, %38
  %42 = phi i32 [ %39, %38 ], [ -1, %40 ]
  %43 = load ptr, ptr %10, align 8
  %44 = load i32, ptr %13, align 4
  %45 = sext i32 %44 to i64
  %46 = getelementptr inbounds ptr, ptr %43, i64 %45
  %47 = load ptr, ptr %46, align 8
  %48 = load ptr, ptr %47, align 8
  %49 = call i32 (ptr, ptr, ...) @fprintf(ptr noundef %34, ptr noundef @.str.17, ptr noundef %35, i32 noundef %42, ptr noundef %48) #4
  br label %50

50:                                               ; preds = %41
  %51 = load i32, ptr %13, align 4
  %52 = add nsw i32 %51, 1
  store i32 %52, ptr %13, align 4
  br label %26, !llvm.loop !11

53:                                               ; preds = %26
  br label %54

54:                                               ; preds = %53, %6
  ret void
}