; Function Attrs: mustprogress nofree nounwind uwtable
define void @_Z10pr_stringsP8_IO_FILEiPKcPKPKS2_ib(ptr nocapture noundef %0, i32 noundef %1, ptr noundef %2, ptr noundef readonly %3, i32 noundef %4, i1 noundef zeroext %5) local_unnamed_addr #0 {
  %.not = icmp eq ptr %3, null
  %7 = icmp sgt i32 %1, 0
  br i1 %.not, label %8, label %_Z9availableP8_IO_FILEPKviPKc.exit.thread

8:                                                ; preds = %6
  br i1 %7, label %.lr.ph.i.i, label %.loopexit.sink.split

.lr.ph.i.i:                                       ; preds = %8, %.lr.ph.i.i
  %.05.i.i = phi i32 [ %9, %.lr.ph.i.i ], [ 0, %8 ]
  %fputc.i.i = tail call i32 @fputc(i32 32, ptr %0)
  %9 = add nuw nsw i32 %.05.i.i, 1
  %exitcond.not.i.i = icmp eq i32 %9, %1
  br i1 %exitcond.not.i.i, label %.loopexit.sink.split, label %.lr.ph.i.i, !llvm.loop !5

_Z9availableP8_IO_FILEPKviPKc.exit.thread:        ; preds = %6
  br i1 %7, label %.lr.ph.i.i19, label %_Z10pr_title_nP8_IO_FILEiPKci.exit

.lr.ph.i.i19:                                     ; preds = %_Z9availableP8_IO_FILEPKviPKc.exit.thread, %.lr.ph.i.i19
  %.05.i.i20 = phi i32 [ %10, %.lr.ph.i.i19 ], [ 0, %_Z9availableP8_IO_FILEPKviPKc.exit.thread ]
  %fputc.i.i21 = tail call i32 @fputc(i32 32, ptr %0)
  %10 = add nuw nsw i32 %.05.i.i20, 1
  %exitcond.not.i.i22 = icmp eq i32 %10, %1
  br i1 %exitcond.not.i.i22, label %_Z10pr_title_nP8_IO_FILEiPKci.exit, label %.lr.ph.i.i19, !llvm.loop !5

_Z10pr_title_nP8_IO_FILEiPKci.exit:               ; preds = %.lr.ph.i.i19, %_Z9availableP8_IO_FILEPKviPKc.exit.thread
  %11 = tail call i32 (ptr, ptr, ...) @fprintf(ptr noundef %0, ptr noundef nonnull @.str.3, ptr noundef %2, i32 noundef %4) #6
  %12 = icmp sgt i32 %4, 0
  br i1 %12, label %.lr.ph, label %.loopexit

.lr.ph:                                           ; preds = %_Z10pr_title_nP8_IO_FILEiPKci.exit
  %13 = icmp sgt i32 %1, -3
  %14 = add nsw i32 %1, 2
  %wide.trip.count44 = zext nneg i32 %4 to i64
  br i1 %13, label %.lr.ph.split.us, label %.lr.ph.split

.lr.ph.split.us:                                  ; preds = %.lr.ph
  br i1 %5, label %.lr.ph.i.preheader.us.us, label %.lr.ph.i.preheader.us

.lr.ph.i.preheader.us.us:                         ; preds = %.lr.ph.split.us, %_Z9pr_indentP8_IO_FILEi.exit.loopexit.us.us
  %indvars.iv41 = phi i64 [ %indvars.iv.next42, %_Z9pr_indentP8_IO_FILEi.exit.loopexit.us.us ], [ 0, %.lr.ph.split.us ]
  br label %.lr.ph.i.us.us

.lr.ph.i.us.us:                                   ; preds = %.lr.ph.i.us.us, %.lr.ph.i.preheader.us.us
  %.05.i.us.us = phi i32 [ %15, %.lr.ph.i.us.us ], [ 0, %.lr.ph.i.preheader.us.us ]
  %fputc.i.us.us = tail call i32 @fputc(i32 32, ptr %0)
  %15 = add nuw nsw i32 %.05.i.us.us, 1
  %exitcond.not.i.us.us = icmp eq i32 %.05.i.us.us, %14
  br i1 %exitcond.not.i.us.us, label %_Z9pr_indentP8_IO_FILEi.exit.loopexit.us.us, label %.lr.ph.i.us.us, !llvm.loop !5

_Z9pr_indentP8_IO_FILEi.exit.loopexit.us.us:      ; preds = %.lr.ph.i.us.us
  %16 = getelementptr inbounds ptr, ptr %3, i64 %indvars.iv41
  %17 = load ptr, ptr %16, align 8
  %18 = load ptr, ptr %17, align 8
  %19 = trunc nuw nsw i64 %indvars.iv41 to i32
  %20 = tail call i32 (ptr, ptr, ...) @fprintf(ptr noundef %0, ptr noundef nonnull @.str.17, ptr noundef %2, i32 noundef %19, ptr noundef %18) #6
  %indvars.iv.next42 = add nuw nsw i64 %indvars.iv41, 1
  %exitcond45.not = icmp eq i64 %indvars.iv.next42, %wide.trip.count44
  br i1 %exitcond45.not, label %.loopexit, label %.lr.ph.i.preheader.us.us, !llvm.loop !11

.lr.ph.i.preheader.us:                            ; preds = %.lr.ph.split.us, %_Z9pr_indentP8_IO_FILEi.exit.loopexit.us
  %indvars.iv36 = phi i64 [ %indvars.iv.next37, %_Z9pr_indentP8_IO_FILEi.exit.loopexit.us ], [ 0, %.lr.ph.split.us ]
  br label %.lr.ph.i.us

.lr.ph.i.us:                                      ; preds = %.lr.ph.i.preheader.us, %.lr.ph.i.us
  %.05.i.us = phi i32 [ %21, %.lr.ph.i.us ], [ 0, %.lr.ph.i.preheader.us ]
  %fputc.i.us = tail call i32 @fputc(i32 32, ptr %0)
  %21 = add nuw nsw i32 %.05.i.us, 1
  %exitcond.not.i.us = icmp eq i32 %.05.i.us, %14
  br i1 %exitcond.not.i.us, label %_Z9pr_indentP8_IO_FILEi.exit.loopexit.us, label %.lr.ph.i.us, !llvm.loop !5

_Z9pr_indentP8_IO_FILEi.exit.loopexit.us:         ; preds = %.lr.ph.i.us
  %22 = getelementptr inbounds ptr, ptr %3, i64 %indvars.iv36
  %23 = load ptr, ptr %22, align 8
  %24 = load ptr, ptr %23, align 8
  %25 = tail call i32 (ptr, ptr, ...) @fprintf(ptr noundef %0, ptr noundef nonnull @.str.17, ptr noundef %2, i32 noundef -1, ptr noundef %24) #6
  %indvars.iv.next37 = add nuw nsw i64 %indvars.iv36, 1
  %exitcond40.not = icmp eq i64 %indvars.iv.next37, %wide.trip.count44
  br i1 %exitcond40.not, label %.loopexit, label %.lr.ph.i.preheader.us, !llvm.loop !11

.lr.ph.split:                                     ; preds = %.lr.ph
  br i1 %5, label %_Z9pr_indentP8_IO_FILEi.exit.us25, label %_Z9pr_indentP8_IO_FILEi.exit

_Z9pr_indentP8_IO_FILEi.exit.us25:                ; preds = %.lr.ph.split, %_Z9pr_indentP8_IO_FILEi.exit.us25
  %indvars.iv31 = phi i64 [ %indvars.iv.next32, %_Z9pr_indentP8_IO_FILEi.exit.us25 ], [ 0, %.lr.ph.split ]
  %26 = getelementptr inbounds ptr, ptr %3, i64 %indvars.iv31
  %27 = load ptr, ptr %26, align 8
  %28 = load ptr, ptr %27, align 8
  %29 = trunc nuw nsw i64 %indvars.iv31 to i32
  %30 = tail call i32 (ptr, ptr, ...) @fprintf(ptr noundef %0, ptr noundef nonnull @.str.17, ptr noundef %2, i32 noundef %29, ptr noundef %28) #6
  %indvars.iv.next32 = add nuw nsw i64 %indvars.iv31, 1
  %exitcond35.not = icmp eq i64 %indvars.iv.next32, %wide.trip.count44
  br i1 %exitcond35.not, label %.loopexit, label %_Z9pr_indentP8_IO_FILEi.exit.us25, !llvm.loop !11

_Z9pr_indentP8_IO_FILEi.exit:                     ; preds = %.lr.ph.split, %_Z9pr_indentP8_IO_FILEi.exit
  %indvars.iv = phi i64 [ %indvars.iv.next, %_Z9pr_indentP8_IO_FILEi.exit ], [ 0, %.lr.ph.split ]
  %31 = getelementptr inbounds ptr, ptr %3, i64 %indvars.iv
  %32 = load ptr, ptr %31, align 8
  %33 = load ptr, ptr %32, align 8
  %34 = tail call i32 (ptr, ptr, ...) @fprintf(ptr noundef %0, ptr noundef nonnull @.str.17, ptr noundef %2, i32 noundef -1, ptr noundef %33) #6
  %indvars.iv.next = add nuw nsw i64 %indvars.iv, 1
  %exitcond.not = icmp eq i64 %indvars.iv.next, %wide.trip.count44
  br i1 %exitcond.not, label %.loopexit, label %_Z9pr_indentP8_IO_FILEi.exit, !llvm.loop !11

.loopexit.sink.split:                             ; preds = %.lr.ph.i.i, %8
  %35 = tail call i32 (ptr, ptr, ...) @fprintf(ptr noundef %0, ptr noundef nonnull @.str.1, ptr noundef %2) #6
  br label %.loopexit

.loopexit:                                        ; preds = %_Z9pr_indentP8_IO_FILEi.exit, %_Z9pr_indentP8_IO_FILEi.exit.us25, %_Z9pr_indentP8_IO_FILEi.exit.loopexit.us, %_Z9pr_indentP8_IO_FILEi.exit.loopexit.us.us, %.loopexit.sink.split, %_Z10pr_title_nP8_IO_FILEiPKci.exit
  ret void
}